target datalayout = "e-m:e-p270:32:32-p271:32:32-p272:64:64-i64:64-i128:128-f80:128-n8:16:32:64-S128"
target triple = "x86_64-pc-linux-gnu"

%struct.conversation = type { ptr, ptr, ptr, i32, i32, i32, ptr, ptr, i32, ptr }
%struct._packet_info = type { ptr, ptr, i32, i32, %struct.nstime_t, %struct.nstime_t, %struct.nstime_t, i8, ptr, ptr, ptr, ptr, %struct._address, %struct._address, %struct._address, %struct._address, %struct._address, %struct._address, i32, ptr, i8, [3 x i8], %struct.anon, i32, i32, i32, i32, ptr, i8, ptr, ptr, i16, i16, i32, i32, i16, i32, i32, ptr, ptr, ptr, i8, i8, i16, i16, i16, i32, i16, i16, ptr, ptr, ptr, ptr, ptr, i32, i32 }
%struct.nstime_t = type { i64, i32 }
%struct._address = type { i32, i32, ptr, ptr }
%struct.anon = type { i8, [3 x i8] }
%struct.tcpinfo = type { i32, i32, i32, i8, i16, i16, i32 }

@proto_rtmpt = internal global i32 0, align 4

; Function Attrs: inlinehint nounwind null_pointer_is_valid sspstrong uwtable
define internal zeroext i1 @addresses_equal(ptr noundef %0, ptr noundef %1) #3 {
  %3 = alloca i1, align 1
  %4 = alloca ptr, align 8
  %5 = alloca ptr, align 8
  store ptr %0, ptr %4, align 8
  store ptr %1, ptr %5, align 8
  %6 = load ptr, ptr %4, align 8
  %7 = getelementptr inbounds nuw %struct._address, ptr %6, i32 0, i32 0
  %8 = load i32, ptr %7, align 8
  %9 = load ptr, ptr %5, align 8
  %10 = getelementptr inbounds nuw %struct._address, ptr %9, i32 0, i32 0
  %11 = load i32, ptr %10, align 8
  %12 = icmp eq i32 %8, %11
  br i1 %12, label %13, label %40

13:                                               ; preds = %2
  %14 = load ptr, ptr %4, align 8
  %15 = getelementptr inbounds nuw %struct._address, ptr %14, i32 0, i32 1
  %16 = load i32, ptr %15, align 4
  %17 = load ptr, ptr %5, align 8
  %18 = getelementptr inbounds nuw %struct._address, ptr %17, i32 0, i32 1
  %19 = load i32, ptr %18, align 4
  %20 = icmp eq i32 %16, %19
  br i1 %20, label %21, label %40

21:                                               ; preds = %13
  %22 = load ptr, ptr %4, align 8
  %23 = getelementptr inbounds nuw %struct._address, ptr %22, i32 0, i32 1
  %24 = load i32, ptr %23, align 4
  %25 = icmp eq i32 %24, 0
  br i1 %25, label %39, label %26

26:                                               ; preds = %21
  %27 = load ptr, ptr %4, align 8
  %28 = getelementptr inbounds nuw %struct._address, ptr %27, i32 0, i32 2
  %29 = load ptr, ptr %28, align 8
  %30 = load ptr, ptr %5, align 8
  %31 = getelementptr inbounds nuw %struct._address, ptr %30, i32 0, i32 2
  %32 = load ptr, ptr %31, align 8
  %33 = load ptr, ptr %4, align 8
  %34 = getelementptr inbounds nuw %struct._address, ptr %33, i32 0, i32 1
  %35 = load i32, ptr %34, align 4
  %36 = sext i32 %35 to i64
  %37 = call i32 @memcmp(ptr noundef %29, ptr noundef %32, i64 noundef %36) #14
  %38 = icmp eq i32 %37, 0
  br i1 %38, label %39, label %40

39:                                               ; preds = %26, %21
  store i1 true, ptr %3, align 1
  br label %41

40:                                               ; preds = %26, %13, %2
  store i1 false, ptr %3, align 1
  br label %41

41:                                               ; preds = %40, %39
  %42 = load i1, ptr %3, align 1
  ret i1 %42
}

; Function Attrs: null_pointer_is_valid sspstrong uwtable
define internal i32 @dissect_rtmpt_tcp(ptr noundef %0, ptr noundef %1, ptr noundef %2, ptr noundef %3) #0 {
  %5 = alloca i32, align 4
  %6 = alloca ptr, align 8
  %7 = alloca ptr, align 8
  %8 = alloca ptr, align 8
  %9 = alloca ptr, align 8
  %10 = alloca ptr, align 8
  %11 = alloca ptr, align 8
  %12 = alloca i32, align 4
  %13 = alloca ptr, align 8
  %14 = alloca i32, align 4
  store ptr %0, ptr %6, align 8
  store ptr %1, ptr %7, align 8
  store ptr %2, ptr %8, align 8
  store ptr %3, ptr %9, align 8
  call void @llvm.lifetime.start.p0(i64 8, ptr %10) #12
  call void @llvm.lifetime.start.p0(i64 8, ptr %11) #12
  call void @llvm.lifetime.start.p0(i64 4, ptr %12) #12
  call void @llvm.lifetime.start.p0(i64 8, ptr %13) #12
  %15 = load ptr, ptr %9, align 8
  %16 = icmp eq ptr %15, null
  br i1 %16, label %17, label %18

17:                                               ; preds = %4
  store i32 0, ptr %5, align 4
  store i32 1, ptr %14, align 4
  br label %80

18:                                               ; preds = %4
  %19 = load ptr, ptr %9, align 8
  store ptr %19, ptr %13, align 8
  %20 = load ptr, ptr %7, align 8
  %21 = call ptr @find_or_create_conversation(ptr noundef %20)
  store ptr %21, ptr %10, align 8
  %22 = load ptr, ptr %10, align 8
  %23 = load i32, ptr @proto_rtmpt, align 4
  %24 = call ptr @conversation_get_proto_data(ptr noundef %22, i32 noundef %23)
  store ptr %24, ptr %11, align 8
  %25 = load ptr, ptr %11, align 8
  %26 = icmp ne ptr %25, null
  br i1 %26, label %30, label %27

27:                                               ; preds = %18
  %28 = load ptr, ptr %10, align 8
  %29 = call ptr @rtmpt_init_rconv(ptr noundef %28)
  store ptr %29, ptr %11, align 8
  br label %30

30:                                               ; preds = %27, %18
  %31 = load ptr, ptr %10, align 8
  %32 = getelementptr inbounds nuw %struct.conversation, ptr %31, i32 0, i32 9
  %33 = load ptr, ptr %32, align 8
  %34 = call ptr @conversation_key_addr1(ptr noundef %33)
  %35 = load ptr, ptr %7, align 8
  %36 = getelementptr inbounds nuw %struct._packet_info, ptr %35, i32 0, i32 16
  %37 = call zeroext i1 @addresses_equal(ptr noundef %34, ptr noundef %36)
  br i1 %37, label %38, label %64

38:                                               ; preds = %30
  %39 = load ptr, ptr %10, align 8
  %40 = getelementptr inbounds nuw %struct.conversation, ptr %39, i32 0, i32 9
  %41 = load ptr, ptr %40, align 8
  %42 = call ptr @conversation_key_addr2(ptr noundef %41)
  %43 = load ptr, ptr %7, align 8
  %44 = getelementptr inbounds nuw %struct._packet_info, ptr %43, i32 0, i32 17
  %45 = call zeroext i1 @addresses_equal(ptr noundef %42, ptr noundef %44)
  br i1 %45, label %46, label %64

46:                                               ; preds = %38
  %47 = load ptr, ptr %10, align 8
  %48 = getelementptr inbounds nuw %struct.conversation, ptr %47, i32 0, i32 9
  %49 = load ptr, ptr %48, align 8
  %50 = call i32 @conversation_key_port1(ptr noundef %49)
  %51 = load ptr, ptr %7, align 8
  %52 = getelementptr inbounds nuw %struct._packet_info, ptr %51, i32 0, i32 24
  %53 = load i32, ptr %52, align 4
  %54 = icmp eq i32 %50, %53
  br i1 %54, label %55, label %64

55:                                               ; preds = %46
  %56 = load ptr, ptr %10, align 8
  %57 = getelementptr inbounds nuw %struct.conversation, ptr %56, i32 0, i32 9
  %58 = load ptr, ptr %57, align 8
  %59 = call i32 @conversation_key_port2(ptr noundef %58)
  %60 = load ptr, ptr %7, align 8
  %61 = getelementptr inbounds nuw %struct._packet_info, ptr %60, i32 0, i32 25
  %62 = load i32, ptr %61, align 8
  %63 = icmp eq i32 %59, %62
  br label %64

64:                                               ; preds = %55, %46, %38, %30
  %65 = phi i1 [ false, %46 ], [ false, %38 ], [ false, %30 ], [ %63, %55 ]
  %66 = select i1 %65, i32 0, i32 1
  store i32 %66, ptr %12, align 4
  %67 = load ptr, ptr %6, align 8
  %68 = load ptr, ptr %7, align 8
  %69 = load ptr, ptr %8, align 8
  %70 = load ptr, ptr %11, align 8
  %71 = load i32, ptr %12, align 4
  %72 = load ptr, ptr %13, align 8
  %73 = getelementptr inbounds nuw %struct.tcpinfo, ptr %72, i32 0, i32 0
  %74 = load i32, ptr %73, align 4
  %75 = load ptr, ptr %13, align 8
  %76 = getelementptr inbounds nuw %struct.tcpinfo, ptr %75, i32 0, i32 2
  %77 = load i32, ptr %76, align 4
  call void @dissect_rtmpt_common(ptr noundef %67, ptr noundef %68, ptr noundef %69, ptr noundef %70, i32 noundef %71, i32 noundef %74, i32 noundef %77)
  %78 = load ptr, ptr %6, align 8
  %79 = call i32 @tvb_reported_length(ptr noundef %78)
  store i32 %79, ptr %5, align 4
  store i32 1, ptr %14, align 4
  br label %80

80:                                               ; preds = %64, %17
  call void @llvm.lifetime.end.p0(i64 8, ptr %13) #12
  call void @llvm.lifetime.end.p0(i64 4, ptr %12) #12
  call void @llvm.lifetime.end.p0(i64 8, ptr %11) #12
  call void @llvm.lifetime.end.p0(i64 8, ptr %10) #12
  %81 = load i32, ptr %5, align 4
  ret i32 %81
}