; Function Attrs: null_pointer_is_valid sspstrong uwtable
define internal i32 @dissect_rtmpt_tcp(ptr noundef %0, ptr noundef %1, ptr noundef %2, ptr noundef readonly captures(address_is_null) %3) #0 {
  %5 = icmp eq ptr %3, null
  br i1 %5, label %74, label %6

6:                                                ; preds = %4
  %7 = tail call ptr @find_or_create_conversation(ptr noundef %1)
  %8 = load i32, ptr @proto_rtmpt, align 4
  %9 = tail call ptr @conversation_get_proto_data(ptr noundef %7, i32 noundef %8)
  %.not = icmp eq ptr %9, null
  br i1 %.not, label %10, label %12

10:                                               ; preds = %6
  %11 = tail call fastcc ptr @rtmpt_init_rconv(ptr noundef %7)
  br label %12

12:                                               ; preds = %10, %6
  %.022 = phi ptr [ %9, %6 ], [ %11, %10 ]
  %13 = getelementptr inbounds nuw i8, ptr %7, i64 64
  %14 = load ptr, ptr %13, align 8
  %15 = tail call ptr @conversation_key_addr1(ptr noundef %14)
  %16 = getelementptr inbounds nuw i8, ptr %1, i64 208
  %17 = load i32, ptr %15, align 8
  %18 = load i32, ptr %16, align 8
  %19 = icmp eq i32 %17, %18
  br i1 %19, label %20, label %addresses_equal.exit

20:                                               ; preds = %12
  %21 = getelementptr inbounds nuw i8, ptr %15, i64 4
  %22 = load i32, ptr %21, align 4
  %23 = getelementptr inbounds nuw i8, ptr %1, i64 212
  %24 = load i32, ptr %23, align 4
  %25 = icmp eq i32 %22, %24
  br i1 %25, label %26, label %addresses_equal.exit

26:                                               ; preds = %20
  %27 = icmp eq i32 %22, 0
  br i1 %27, label %35, label %28

28:                                               ; preds = %26
  %29 = getelementptr inbounds nuw i8, ptr %15, i64 8
  %30 = load ptr, ptr %29, align 8
  %31 = getelementptr inbounds nuw i8, ptr %1, i64 216
  %32 = load ptr, ptr %31, align 8
  %33 = sext i32 %22 to i64
  %bcmp.i = tail call i32 @bcmp(ptr %30, ptr %32, i64 %33)
  %34 = icmp eq i32 %bcmp.i, 0
  br i1 %34, label %35, label %addresses_equal.exit

35:                                               ; preds = %28, %26
  %36 = load ptr, ptr %13, align 8
  %37 = tail call ptr @conversation_key_addr2(ptr noundef %36)
  %38 = getelementptr inbounds nuw i8, ptr %1, i64 232
  %39 = load i32, ptr %37, align 8
  %40 = load i32, ptr %38, align 8
  %41 = icmp eq i32 %39, %40
  br i1 %41, label %42, label %addresses_equal.exit

42:                                               ; preds = %35
  %43 = getelementptr inbounds nuw i8, ptr %37, i64 4
  %44 = load i32, ptr %43, align 4
  %45 = getelementptr inbounds nuw i8, ptr %1, i64 236
  %46 = load i32, ptr %45, align 4
  %47 = icmp eq i32 %44, %46
  br i1 %47, label %48, label %addresses_equal.exit

48:                                               ; preds = %42
  %49 = icmp eq i32 %44, 0
  br i1 %49, label %57, label %50

50:                                               ; preds = %48
  %51 = getelementptr inbounds nuw i8, ptr %37, i64 8
  %52 = load ptr, ptr %51, align 8
  %53 = getelementptr inbounds nuw i8, ptr %1, i64 240
  %54 = load ptr, ptr %53, align 8
  %55 = sext i32 %44 to i64
  %bcmp.i26 = tail call i32 @bcmp(ptr %52, ptr %54, i64 %55)
  %56 = icmp eq i32 %bcmp.i26, 0
  br i1 %56, label %57, label %addresses_equal.exit

57:                                               ; preds = %50, %48
  %58 = load ptr, ptr %13, align 8
  %59 = tail call i32 @conversation_key_port1(ptr noundef %58)
  %60 = getelementptr inbounds nuw i8, ptr %1, i64 284
  %61 = load i32, ptr %60, align 4
  %62 = icmp eq i32 %59, %61
  br i1 %62, label %63, label %addresses_equal.exit

63:                                               ; preds = %57
  %64 = load ptr, ptr %13, align 8
  %65 = tail call i32 @conversation_key_port2(ptr noundef %64)
  %66 = getelementptr inbounds nuw i8, ptr %1, i64 288
  %67 = load i32, ptr %66, align 8
  %68 = icmp ne i32 %65, %67
  %69 = zext i1 %68 to i32
  br label %addresses_equal.exit

addresses_equal.exit:                             ; preds = %50, %42, %35, %28, %20, %12, %63, %57
  %not. = phi i32 [ 1, %57 ], [ %69, %63 ], [ 1, %12 ], [ 1, %20 ], [ 1, %28 ], [ 1, %35 ], [ 1, %42 ], [ 1, %50 ]
  %70 = load i32, ptr %3, align 4
  %71 = getelementptr inbounds nuw i8, ptr %3, i64 8
  %72 = load i32, ptr %71, align 4
  tail call fastcc void @dissect_rtmpt_common(ptr noundef %0, ptr noundef %1, ptr noundef %2, ptr noundef %.022, i32 noundef %not., i32 noundef %70, i32 noundef %72)
  %73 = tail call i32 @tvb_reported_length(ptr noundef %0)
  br label %74

74:                                               ; preds = %4, %addresses_equal.exit
  %.0 = phi i32 [ %73, %addresses_equal.exit ], [ 0, %4 ]
  ret i32 %.0
}